(dp1
S'jroes'
p2
(dp3
S'picture'
p4
S'http://jroes.sosdg.org/me.jpg'
p5
sS'firstname'
p6
S'Jonathan'
p7
sS'lastname'
p8
S'Roes'
p9
sS'password'
p10
S'dc724af18fbdd4e59189f5fe768a5f8311527050'
p11
sS'homepage'
p12
S'http://jroes.sosdg.org'
p13
sS'email'
p14
S'jroes@sosdg.org'
p15
ss.